; Function Attrs: nounwind uwtable
define hidden noundef i32 @mbedtls_md5(ptr noundef readonly captures(none) %0, i64 noundef %1, ptr noundef writeonly captures(none) %2) local_unnamed_addr #2 {
  %4 = alloca %struct.mbedtls_md5_context, align 4
  call void @llvm.lifetime.start.p0(i64 88, ptr nonnull %4) #11
  %5 = getelementptr inbounds nuw i8, ptr %4, i64 8
  call void @llvm.memset.p0.i64(ptr noundef nonnull align 4 dereferenceable(88) %4, i8 0, i64 88, i1 false)
  store i32 1732584193, ptr %5, align 4, !tbaa !7
  %6 = getelementptr inbounds nuw i8, ptr %4, i64 12
  store i32 -271733879, ptr %6, align 4, !tbaa !7
  %7 = getelementptr inbounds nuw i8, ptr %4, i64 16
  store i32 -1732584194, ptr %7, align 4, !tbaa !7
  %8 = getelementptr inbounds nuw i8, ptr %4, i64 20
  store i32 271733878, ptr %8, align 4, !tbaa !7
  %9 = icmp eq i64 %1, 0
  br i1 %9, label %mbedtls_md5_update.exit, label %10

10:                                               ; preds = %3
  %11 = trunc i64 %1 to i32
  store i32 %11, ptr %4, align 4, !tbaa !7
  %12 = icmp ugt i64 %1, 63
  br i1 %12, label %.lr.ph.i, label %._crit_edge.thread.i

.lr.ph.i:                                         ; preds = %10, %.lr.ph.i
  %.147.i = phi i64 [ %15, %.lr.ph.i ], [ %1, %10 ]
  %.13746.i = phi ptr [ %14, %.lr.ph.i ], [ %0, %10 ]
  %13 = call i32 @mbedtls_internal_md5_process(ptr noundef nonnull %4, ptr noundef %.13746.i)
  %14 = getelementptr inbounds nuw i8, ptr %.13746.i, i64 64
  %15 = add i64 %.147.i, -64
  %16 = icmp ugt i64 %15, 63
  br i1 %16, label %.lr.ph.i, label %._crit_edge.i, !llvm.loop !14

._crit_edge.i:                                    ; preds = %.lr.ph.i
  %.not45.i = icmp eq i64 %15, 0
  br i1 %.not45.i, label %mbedtls_md5_update.exit, label %._crit_edge.thread.i

._crit_edge.thread.i:                             ; preds = %10, %._crit_edge.i
  %.1.lcssa.i9 = phi i64 [ %15, %._crit_edge.i ], [ %1, %10 ]
  %.137.lcssa.i8 = phi ptr [ %14, %._crit_edge.i ], [ %0, %10 ]
  %17 = getelementptr inbounds nuw i8, ptr %4, i64 24
  call void @llvm.memcpy.p0.p0.i64(ptr nonnull align 4 %17, ptr align 1 %.137.lcssa.i8, i64 %.1.lcssa.i9, i1 false)
  br label %mbedtls_md5_update.exit

mbedtls_md5_update.exit:                          ; preds = %3, %._crit_edge.i, %._crit_edge.thread.i
  %18 = load i32, ptr %4, align 4, !tbaa !7
  %19 = and i32 %18, 63
  %20 = getelementptr inbounds nuw i8, ptr %4, i64 24
  %21 = zext nneg i32 %19 to i64
  %22 = getelementptr inbounds nuw [64 x i8], ptr %20, i64 0, i64 %21
  store i8 -128, ptr %22, align 1, !tbaa !4
  %23 = icmp samesign ult i32 %19, 56
  %24 = getelementptr inbounds nuw i8, ptr %22, i64 1
  br i1 %23, label %25, label %28

25:                                               ; preds = %mbedtls_md5_update.exit
  %26 = sub nuw nsw i32 55, %19
  %27 = zext nneg i32 %26 to i64
  call void @llvm.memset.p0.i64(ptr nonnull align 1 %24, i8 0, i64 %27, i1 false)
  br label %mbedtls_md5_finish.exit

28:                                               ; preds = %mbedtls_md5_update.exit
  %29 = xor i32 %19, 63
  %30 = zext nneg i32 %29 to i64
  call void @llvm.memset.p0.i64(ptr nonnull align 1 %24, i8 0, i64 %30, i1 false)
  %31 = call i32 @mbedtls_internal_md5_process(ptr noundef nonnull %4, ptr noundef nonnull %20)
  call void @llvm.memset.p0.i64(ptr noundef nonnull align 4 dereferenceable(56) %20, i8 0, i64 56, i1 false)
  %.pre.i = load i32, ptr %4, align 4, !tbaa !7
  br label %mbedtls_md5_finish.exit

mbedtls_md5_finish.exit:                          ; preds = %25, %28
  %32 = phi i32 [ %.pre.i, %28 ], [ %18, %25 ]
  %33 = getelementptr inbounds nuw i8, ptr %4, i64 4
  %34 = load i32, ptr %33, align 4, !tbaa !7
  %35 = tail call i32 @llvm.fshl.i32(i32 %34, i32 %32, i32 3)
  %36 = shl i32 %32, 3
  %37 = getelementptr inbounds nuw i8, ptr %4, i64 80
  store i32 %36, ptr %37, align 4
  %38 = getelementptr inbounds nuw i8, ptr %4, i64 84
  store i32 %35, ptr %38, align 4
  %39 = call i32 @mbedtls_internal_md5_process(ptr noundef nonnull %4, ptr noundef nonnull %20)
  %40 = load i32, ptr %5, align 4, !tbaa !7
  store i32 %40, ptr %2, align 1
  %41 = getelementptr inbounds nuw i8, ptr %2, i64 4
  %42 = load i32, ptr %6, align 4, !tbaa !7
  store i32 %42, ptr %41, align 1
  %43 = getelementptr inbounds nuw i8, ptr %2, i64 8
  %44 = load i32, ptr %7, align 4, !tbaa !7
  store i32 %44, ptr %43, align 1
  %45 = getelementptr inbounds nuw i8, ptr %2, i64 12
  %46 = load i32, ptr %8, align 4, !tbaa !7
  store i32 %46, ptr %45, align 1
  call void @mbedtls_platform_zeroize(ptr noundef nonnull %4, i64 noundef 88) #11
  call void @mbedtls_platform_zeroize(ptr noundef nonnull %4, i64 noundef 88) #11
  call void @llvm.lifetime.end.p0(i64 88, ptr nonnull %4) #11
  ret i32 0
}